; ModuleID = '29/538.c'
source_filename = "29/538.c"
target datalayout = "e-m:e-p270:32:32-p271:32:32-p272:64:64-i64:64-f80:128-n8:16:32:64-S128"
target triple = "x86_64-pc-linux-gnu"

@.str = private unnamed_addr constant [3 x i8] c"%d\00", align 1
@.str.1 = private unnamed_addr constant [7 x i8] c"%.3lf\0A\00", align 1
@.str.2 = private unnamed_addr constant [6 x i8] c"%.3lf\00", align 1

; Function Attrs: noinline nounwind uwtable
define dso_local i32 @main() #0 {
  %1 = alloca i32, align 4
  %2 = alloca [100 x i32], align 16
  %3 = alloca [100 x i32], align 16
  %4 = alloca double, align 8
  %5 = alloca double, align 8
  %6 = alloca double, align 8
  %7 = alloca i32, align 4
  %8 = alloca i32, align 4
  %9 = alloca i32, align 4
  %10 = alloca i32, align 4
  %11 = alloca [100 x double], align 16
  store i32 0, i32* %1, align 4
  %12 = getelementptr inbounds [100 x i32], [100 x i32]* %2, i64 0, i64 0
  store i32 2, i32* %12, align 16
  %13 = getelementptr inbounds [100 x i32], [100 x i32]* %2, i64 0, i64 1
  store i32 3, i32* %13, align 4
  %14 = getelementptr inbounds [100 x i32], [100 x i32]* %3, i64 0, i64 0
  store i32 1, i32* %14, align 16
  %15 = getelementptr inbounds [100 x i32], [100 x i32]* %3, i64 0, i64 1
  store i32 2, i32* %15, align 4
  store double 0.000000e+00, double* %4, align 8
  store double 2.000000e+00, double* %5, align 8
  %16 = load double, double* %5, align 8
  %17 = fadd double %16, 1.500000e+00
  store double %17, double* %6, align 8
  %18 = call i32 (i8*, ...) @__isoc99_scanf(i8* getelementptr inbounds ([3 x i8], [3 x i8]* @.str, i64 0, i64 0), i32* %8)
  store i32 0, i32* %7, align 4
  br label %19

19:                                               ; preds = %99, %0
  %20 = load i32, i32* %7, align 4
  %21 = load i32, i32* %8, align 4
  %22 = icmp slt i32 %20, %21
  br i1 %22, label %23, label %102

23:                                               ; preds = %19
  %24 = load double, double* %6, align 8
  store double %24, double* %4, align 8
  %25 = call i32 (i8*, ...) @__isoc99_scanf(i8* getelementptr inbounds ([3 x i8], [3 x i8]* @.str, i64 0, i64 0), i32* %10)
  %26 = load i32, i32* %10, align 4
  %27 = icmp eq i32 %26, 1
  br i1 %27, label %28, label %33

28:                                               ; preds = %23
  %29 = load double, double* %5, align 8
  %30 = load i32, i32* %7, align 4
  %31 = sext i32 %30 to i64
  %32 = getelementptr inbounds [100 x double], [100 x double]* %11, i64 0, i64 %31
  store double %29, double* %32, align 8
  br label %98

33:                                               ; preds = %23
  %34 = load i32, i32* %10, align 4
  %35 = icmp eq i32 %34, 2
  br i1 %35, label %36, label %41

36:                                               ; preds = %33
  %37 = load double, double* %6, align 8
  %38 = load i32, i32* %7, align 4
  %39 = sext i32 %38 to i64
  %40 = getelementptr inbounds [100 x double], [100 x double]* %11, i64 0, i64 %39
  store double %37, double* %40, align 8
  br label %97

41:                                               ; preds = %33
  store i32 2, i32* %9, align 4
  br label %42

42:                                               ; preds = %93, %41
  %43 = load i32, i32* %9, align 4
  %44 = load i32, i32* %10, align 4
  %45 = icmp slt i32 %43, %44
  br i1 %45, label %46, label %96

46:                                               ; preds = %42
  %47 = load i32, i32* %9, align 4
  %48 = sub nsw i32 %47, 1
  %49 = sext i32 %48 to i64
  %50 = getelementptr inbounds [100 x i32], [100 x i32]* %2, i64 0, i64 %49
  %51 = load i32, i32* %50, align 4
  %52 = load i32, i32* %9, align 4
  %53 = sub nsw i32 %52, 2
  %54 = sext i32 %53 to i64
  %55 = getelementptr inbounds [100 x i32], [100 x i32]* %2, i64 0, i64 %54
  %56 = load i32, i32* %55, align 4
  %57 = add nsw i32 %51, %56
  %58 = load i32, i32* %9, align 4
  %59 = sext i32 %58 to i64
  %60 = getelementptr inbounds [100 x i32], [100 x i32]* %2, i64 0, i64 %59
  store i32 %57, i32* %60, align 4
  %61 = load i32, i32* %9, align 4
  %62 = sub nsw i32 %61, 1
  %63 = sext i32 %62 to i64
  %64 = getelementptr inbounds [100 x i32], [100 x i32]* %3, i64 0, i64 %63
  %65 = load i32, i32* %64, align 4
  %66 = load i32, i32* %9, align 4
  %67 = sub nsw i32 %66, 2
  %68 = sext i32 %67 to i64
  %69 = getelementptr inbounds [100 x i32], [100 x i32]* %3, i64 0, i64 %68
  %70 = load i32, i32* %69, align 4
  %71 = add nsw i32 %65, %70
  %72 = load i32, i32* %9, align 4
  %73 = sext i32 %72 to i64
  %74 = getelementptr inbounds [100 x i32], [100 x i32]* %3, i64 0, i64 %73
  store i32 %71, i32* %74, align 4
  %75 = load i32, i32* %9, align 4
  %76 = sext i32 %75 to i64
  %77 = getelementptr inbounds [100 x i32], [100 x i32]* %2, i64 0, i64 %76
  %78 = load i32, i32* %77, align 4
  %79 = sitofp i32 %78 to double
  %80 = fmul double %79, 1.000000e+00
  %81 = load i32, i32* %9, align 4
  %82 = sext i32 %81 to i64
  %83 = getelementptr inbounds [100 x i32], [100 x i32]* %3, i64 0, i64 %82
  %84 = load i32, i32* %83, align 4
  %85 = sitofp i32 %84 to double
  %86 = fdiv double %80, %85
  %87 = load double, double* %4, align 8
  %88 = fadd double %87, %86
  store double %88, double* %4, align 8
  %89 = load double, double* %4, align 8
  %90 = load i32, i32* %7, align 4
  %91 = sext i32 %90 to i64
  %92 = getelementptr inbounds [100 x double], [100 x double]* %11, i64 0, i64 %91
  store double %89, double* %92, align 8
  br label %93

93:                                               ; preds = %46
  %94 = load i32, i32* %9, align 4
  %95 = add nsw i32 %94, 1
  store i32 %95, i32* %9, align 4
  br label %42

96:                                               ; preds = %42
  br label %97

97:                                               ; preds = %96, %36
  br label %98

98:                                               ; preds = %97, %28
  br label %99

99:                                               ; preds = %98
  %100 = load i32, i32* %7, align 4
  %101 = add nsw i32 %100, 1
  store i32 %101, i32* %7, align 4
  br label %19

102:                                              ; preds = %19
  store i32 0, i32* %7, align 4
  br label %103

103:                                              ; preds = %114, %102
  %104 = load i32, i32* %7, align 4
  %105 = load i32, i32* %8, align 4
  %106 = sub nsw i32 %105, 1
  %107 = icmp slt i32 %104, %106
  br i1 %107, label %108, label %117

108:                                              ; preds = %103
  %109 = load i32, i32* %7, align 4
  %110 = sext i32 %109 to i64
  %111 = getelementptr inbounds [100 x double], [100 x double]* %11, i64 0, i64 %110
  %112 = load double, double* %111, align 8
  %113 = call i32 (i8*, ...) @printf(i8* getelementptr inbounds ([7 x i8], [7 x i8]* @.str.1, i64 0, i64 0), double %112)
  br label %114

114:                                              ; preds = %108
  %115 = load i32, i32* %7, align 4
  %116 = add nsw i32 %115, 1
  store i32 %116, i32* %7, align 4
  br label %103

117:                                              ; preds = %103
  %118 = load i32, i32* %7, align 4
  %119 = sext i32 %118 to i64
  %120 = getelementptr inbounds [100 x double], [100 x double]* %11, i64 0, i64 %119
  %121 = load double, double* %120, align 8
  %122 = call i32 (i8*, ...) @printf(i8* getelementptr inbounds ([6 x i8], [6 x i8]* @.str.2, i64 0, i64 0), double %121)
  ret i32 0
}

declare dso_local i32 @__isoc99_scanf(i8*, ...) #1

declare dso_local i32 @printf(i8*, ...) #1


!llvm.module.flags = !{!0}
!llvm.ident = !{!1}

!0 = !{i32 1, !"wchar_size", i32 4}
!1 = !{!"clang version 10.0.0-4ubuntu1 "}
